target datalayout = "e-m:e-p270:32:32-p271:32:32-p272:64:64-i64:64-i128:128-f80:128-n8:16:32:64-S128"
target triple = "x86_64-pc-linux-gnu"

@hf_gvsp_payloadtype = internal global i32 0, align 4
@hf_gvsp_timestamp = internal global i32 0, align 4
@hf_gvsp_pixelformat = internal global i32 0, align 4
@hf_gvsp_sizex = internal global i32 0, align 4
@hf_gvsp_sizey = internal global i32 0, align 4
@hf_gvsp_offsetx = internal global i32 0, align 4
@hf_gvsp_offsety = internal global i32 0, align 4
@hf_gvsp_paddingx = internal global i32 0, align 4
@hf_gvsp_paddingy = internal global i32 0, align 4
@hf_gvsp_fieldinfo = internal global i32 0, align 4
@ett_gvsp_pixelformat = internal global i32 0, align 4
@ett_gvsp_fieldinfo = internal global i32 0, align 4
@pixelformat_fields = internal constant [4 x ptr] [ptr @hf_gvsp_pixelcolor, ptr @hf_gvsp_pixeloccupy, ptr @hf_gvsp_pixelid, ptr null], align 16
@fieldinfo_fields = internal constant [3 x ptr] [ptr @hf_gvsp_fieldid, ptr @hf_gvsp_fieldcount, ptr null], align 16

; Function Attrs: null_pointer_is_valid sspstrong uwtable
define internal void @dissect_image_aoi(ptr noundef %0, ptr noundef %1, i32 noundef %2) #0 {
  %4 = alloca ptr, align 8
  %5 = alloca ptr, align 8
  %6 = alloca i32, align 4
  store ptr %0, ptr %4, align 8
  store ptr %1, ptr %5, align 8
  store i32 %2, ptr %6, align 4
  %7 = load ptr, ptr %4, align 8
  %8 = load i32, ptr @hf_gvsp_sizex, align 4
  %9 = load ptr, ptr %5, align 8
  %10 = load i32, ptr %6, align 4
  %11 = call ptr @proto_tree_add_item(ptr noundef %7, i32 noundef %8, ptr noundef %9, i32 noundef %10, i32 noundef 4, i32 noundef 0)
  %12 = load ptr, ptr %4, align 8
  %13 = load i32, ptr @hf_gvsp_sizey, align 4
  %14 = load ptr, ptr %5, align 8
  %15 = load i32, ptr %6, align 4
  %16 = add i32 %15, 4
  %17 = call ptr @proto_tree_add_item(ptr noundef %12, i32 noundef %13, ptr noundef %14, i32 noundef %16, i32 noundef 4, i32 noundef 0)
  %18 = load ptr, ptr %4, align 8
  %19 = load i32, ptr @hf_gvsp_offsetx, align 4
  %20 = load ptr, ptr %5, align 8
  %21 = load i32, ptr %6, align 4
  %22 = add i32 %21, 8
  %23 = call ptr @proto_tree_add_item(ptr noundef %18, i32 noundef %19, ptr noundef %20, i32 noundef %22, i32 noundef 4, i32 noundef 0)
  %24 = load ptr, ptr %4, align 8
  %25 = load i32, ptr @hf_gvsp_offsety, align 4
  %26 = load ptr, ptr %5, align 8
  %27 = load i32, ptr %6, align 4
  %28 = add i32 %27, 12
  %29 = call ptr @proto_tree_add_item(ptr noundef %24, i32 noundef %25, ptr noundef %26, i32 noundef %28, i32 noundef 4, i32 noundef 0)
  %30 = load ptr, ptr %4, align 8
  %31 = load i32, ptr @hf_gvsp_paddingx, align 4
  %32 = load ptr, ptr %5, align 8
  %33 = load i32, ptr %6, align 4
  %34 = add i32 %33, 16
  %35 = call ptr @proto_tree_add_item(ptr noundef %30, i32 noundef %31, ptr noundef %32, i32 noundef %34, i32 noundef 2, i32 noundef 0)
  %36 = load ptr, ptr %4, align 8
  %37 = load i32, ptr @hf_gvsp_paddingy, align 4
  %38 = load ptr, ptr %5, align 8
  %39 = load i32, ptr %6, align 4
  %40 = add i32 %39, 18
  %41 = call ptr @proto_tree_add_item(ptr noundef %36, i32 noundef %37, ptr noundef %38, i32 noundef %40, i32 noundef 2, i32 noundef 0)
  ret void
}

; Function Attrs: null_pointer_is_valid sspstrong uwtable
define internal i32 @dissect_image_leader(ptr noundef %0, ptr noundef %1, ptr noundef %2, i32 noundef %3) #0 {
  %5 = alloca ptr, align 8
  %6 = alloca ptr, align 8
  %7 = alloca ptr, align 8
  %8 = alloca i32, align 4
  store ptr %0, ptr %5, align 8
  store ptr %1, ptr %6, align 8
  store ptr %2, ptr %7, align 8
  store i32 %3, ptr %8, align 4
  %9 = load ptr, ptr %5, align 8
  %10 = load ptr, ptr %6, align 8
  %11 = load i32, ptr %8, align 4
  %12 = load i32, ptr @hf_gvsp_fieldinfo, align 4
  %13 = load i32, ptr @ett_gvsp_fieldinfo, align 4
  %14 = call ptr @proto_tree_add_bitmask(ptr noundef %9, ptr noundef %10, i32 noundef %11, i32 noundef %12, i32 noundef %13, ptr noundef @fieldinfo_fields, i32 noundef 0)
  %15 = load ptr, ptr %5, align 8
  %16 = load i32, ptr @hf_gvsp_payloadtype, align 4
  %17 = load ptr, ptr %6, align 8
  %18 = load i32, ptr %8, align 4
  %19 = add i32 %18, 2
  %20 = call ptr @proto_tree_add_item(ptr noundef %15, i32 noundef %16, ptr noundef %17, i32 noundef %19, i32 noundef 2, i32 noundef 0)
  %21 = load ptr, ptr %5, align 8
  %22 = load i32, ptr @hf_gvsp_timestamp, align 4
  %23 = load ptr, ptr %6, align 8
  %24 = load i32, ptr %8, align 4
  %25 = add i32 %24, 4
  %26 = call ptr @proto_tree_add_item(ptr noundef %21, i32 noundef %22, ptr noundef %23, i32 noundef %25, i32 noundef 8, i32 noundef 0)
  %27 = load ptr, ptr %5, align 8
  %28 = load ptr, ptr %6, align 8
  %29 = load i32, ptr %8, align 4
  %30 = add i32 %29, 12
  %31 = load i32, ptr @hf_gvsp_pixelformat, align 4
  %32 = load i32, ptr @ett_gvsp_pixelformat, align 4
  %33 = call ptr @proto_tree_add_bitmask(ptr noundef %27, ptr noundef %28, i32 noundef %30, i32 noundef %31, i32 noundef %32, ptr noundef @pixelformat_fields, i32 noundef 0)
  %34 = load ptr, ptr %5, align 8
  %35 = load ptr, ptr %6, align 8
  %36 = load i32, ptr %8, align 4
  %37 = add i32 %36, 16
  call void @dissect_image_aoi(ptr noundef %34, ptr noundef %35, i32 noundef %37)
  ret i32 36
}